target datalayout = "e-m:e-p270:32:32-p271:32:32-p272:64:64-i64:64-i128:128-f80:128-n8:16:32:64-S128"
target triple = "x86_64-unknown-linux-gnu"

%"class.google::protobuf::DynamicMessage" = type <{ %"class.google::protobuf::Message", ptr, %"class.google::protobuf::internal::CachedSize", [4 x i8] }>
%"class.google::protobuf::Message" = type { %"class.google::protobuf::MessageLite" }
%"class.google::protobuf::MessageLite" = type { ptr, %"class.google::protobuf::internal::InternalMetadata" }
%"class.google::protobuf::internal::InternalMetadata" = type { i64 }
%"class.google::protobuf::internal::CachedSize" = type { i32 }
%"struct.google::protobuf::DynamicMessageFactory::TypeInfo" = type <{ i32, i32, i32, i32, ptr, ptr, ptr, %"class.std::unique_ptr", %"class.std::unique_ptr", %"class.std::unique_ptr.2", ptr, i32, [4 x i8] }>
%"class.std::unique_ptr" = type { %"struct.std::__uniq_ptr_data" }
%"struct.std::__uniq_ptr_data" = type { %"class.std::__uniq_ptr_impl" }
%"class.std::__uniq_ptr_impl" = type { %"class.std::tuple" }
%"class.std::tuple" = type { %"struct.std::_Tuple_impl" }
%"struct.std::_Tuple_impl" = type { %"struct.std::_Head_base.1" }
%"struct.std::_Head_base.1" = type { ptr }
%"class.std::unique_ptr.2" = type { %"struct.std::__uniq_ptr_data.3" }
%"struct.std::__uniq_ptr_data.3" = type { %"class.std::__uniq_ptr_impl.4" }
%"class.std::__uniq_ptr_impl.4" = type { %"class.std::tuple.5" }
%"class.std::tuple.5" = type { %"struct.std::_Tuple_impl.6" }
%"struct.std::_Tuple_impl.6" = type { %"struct.std::_Head_base.9" }
%"struct.std::_Head_base.9" = type { ptr }
%"class.absl::lts_20230802::log_internal::NullStream" = type { i8 }
%"class.absl::lts_20230802::log_internal::LogMessageFatal" = type { %"class.absl::lts_20230802::log_internal::LogMessage" }
%"class.absl::lts_20230802::log_internal::LogMessage" = type { %"class.absl::lts_20230802::base_internal::ErrnoSaver", %"class.std::unique_ptr.40" }
%"class.absl::lts_20230802::base_internal::ErrnoSaver" = type { i32 }
%"class.std::unique_ptr.40" = type { %"struct.std::__uniq_ptr_data.41" }
%"struct.std::__uniq_ptr_data.41" = type { %"class.std::__uniq_ptr_impl.42" }
%"class.std::__uniq_ptr_impl.42" = type { %"class.std::tuple.43" }
%"class.std::tuple.43" = type { %"struct.std::_Tuple_impl.44" }
%"struct.std::_Tuple_impl.44" = type { %"struct.std::_Head_base.47" }
%"struct.std::_Head_base.47" = type { ptr }
%"class.std::basic_string_view" = type { i64, ptr }
%"struct.google::protobuf::internal::ArenaAlign" = type { i64 }

@.str.4 = private unnamed_addr constant [63 x i8] c"num_elements <= std::numeric_limits<size_t>::max() / sizeof(T)\00", align 1
@.str.5 = private unnamed_addr constant [123 x i8] c"generated/home/dtcxzyw/WorkSpace/Projects/compilers/llvm-opt-benchmark/bench/protobuf/protobuf/src/google/protobuf/arena.h\00", align 1
@.str.6 = private unnamed_addr constant [48 x i8] c"Requested size is too large to fit into size_t.\00", align 1
@_ZN6google8protobuf14DynamicMessageC1EPKNS0_21DynamicMessageFactory8TypeInfoE = hidden unnamed_addr alias void (ptr, ptr), ptr @_ZN6google8protobuf14DynamicMessageC2EPKNS0_21DynamicMessageFactory8TypeInfoE
@_ZN6google8protobuf14DynamicMessageC1EPKNS0_21DynamicMessageFactory8TypeInfoEPNS0_5ArenaE = hidden unnamed_addr alias void (ptr, ptr, ptr), ptr @_ZN6google8protobuf14DynamicMessageC2EPKNS0_21DynamicMessageFactory8TypeInfoEPNS0_5ArenaE

; Function Attrs: mustprogress nounwind uwtable
define linkonce_odr hidden noundef nonnull align 1 dereferenceable(1) ptr @_ZN4absl12lts_2023080212log_internal10NullStream14InternalStreamEv(ptr noundef nonnull align 1 dereferenceable(1) %this) #5 comdat align 2 {
entry:
  %this.addr = alloca ptr, align 8
  store ptr %this, ptr %this.addr, align 8
  %this1 = load ptr, ptr %this.addr, align 8
  ret ptr %this1
}

; Function Attrs: noreturn nounwind uwtable
define linkonce_odr hidden void @__clang_call_terminate(ptr noundef %0) #7 comdat {
  %2 = call ptr @__cxa_begin_catch(ptr %0) #3
  call void @_ZSt9terminatev() #23
  unreachable
}

; Function Attrs: mustprogress nounwind uwtable
define linkonce_odr hidden noundef i64 @_ZNSt11char_traitsIcE6lengthEPKc(ptr noundef %__s) #5 comdat align 2 {
entry:
  %__s.addr = alloca ptr, align 8
  store ptr %__s, ptr %__s.addr, align 8
  %0 = load ptr, ptr %__s.addr, align 8
  %call = call i64 @strlen(ptr noundef %0) #3
  ret i64 %call
}

; Function Attrs: mustprogress nounwind uwtable
define linkonce_odr hidden noundef ptr @_ZNK6google8protobuf8internal10ArenaAlign4CeilIvEEPT_S5_(ptr noundef nonnull align 8 dereferenceable(8) %this, ptr noundef %ptr) #5 comdat align 2 {
entry:
  %this.addr = alloca ptr, align 8
  %ptr.addr = alloca ptr, align 8
  %intptr = alloca i64, align 8
  store ptr %this, ptr %this.addr, align 8
  store ptr %ptr, ptr %ptr.addr, align 8
  %this1 = load ptr, ptr %this.addr, align 8
  %0 = load ptr, ptr %ptr.addr, align 8
  %1 = ptrtoint ptr %0 to i64
  store i64 %1, ptr %intptr, align 8
  %2 = load i64, ptr %intptr, align 8
  %align = getelementptr inbounds %"struct.google::protobuf::internal::ArenaAlign", ptr %this1, i32 0, i32 0
  %3 = load i64, ptr %align, align 8
  %add = add i64 %2, %3
  %sub = sub i64 %add, 1
  %align2 = getelementptr inbounds %"struct.google::protobuf::internal::ArenaAlign", ptr %this1, i32 0, i32 0
  %4 = load i64, ptr %align2, align 8
  %sub3 = sub i64 %4, 1
  %not = xor i64 %sub3, -1
  %and = and i64 %sub, %not
  %5 = inttoptr i64 %and to ptr
  ret ptr %5
}

; Function Attrs: mustprogress nounwind uwtable
define linkonce_odr hidden noundef i64 @_ZNK6google8protobuf8internal10ArenaAlign6PaddedEm(ptr noundef nonnull align 8 dereferenceable(8) %this, i64 noundef %n) #5 comdat align 2 {
entry:
  %this.addr = alloca ptr, align 8
  %n.addr = alloca i64, align 8
  store ptr %this, ptr %this.addr, align 8
  store i64 %n, ptr %n.addr, align 8
  %this1 = load ptr, ptr %this.addr, align 8
  %0 = load i64, ptr %n.addr, align 8
  %align = getelementptr inbounds %"struct.google::protobuf::internal::ArenaAlign", ptr %this1, i32 0, i32 0
  %1 = load i64, ptr %align, align 8
  %add = add i64 %0, %1
  %sub = sub i64 %add, 8
  ret i64 %sub
}

; Function Attrs: mustprogress nounwind uwtable
define linkonce_odr hidden i64 @_ZN6google8protobuf8internal12ArenaAlignAsEm(i64 noundef %align) #5 comdat {
entry:
  %retval = alloca %"struct.google::protobuf::internal::ArenaAlign", align 8
  %align.addr = alloca i64, align 8
  %ref.tmp = alloca %"class.absl::lts_20230802::log_internal::NullStream", align 1
  store i64 %align, ptr %align.addr, align 8
  br label %while.cond

while.cond:                                       ; preds = %while.body, %entry
  br i1 false, label %while.body, label %while.end

while.body:                                       ; preds = %while.cond
  %call = call noundef nonnull align 1 dereferenceable(1) ptr @_ZN4absl12lts_2023080212log_internal10NullStream14InternalStreamEv(ptr noundef nonnull align 1 dereferenceable(1) %ref.tmp)
  br label %while.cond, !llvm.loop !32

while.end:                                        ; preds = %while.cond
  %align1 = getelementptr inbounds %"struct.google::protobuf::internal::ArenaAlign", ptr %retval, i32 0, i32 0
  %0 = load i64, ptr %align.addr, align 8
  store i64 %0, ptr %align1, align 8
  %coerce.dive = getelementptr inbounds %"struct.google::protobuf::internal::ArenaAlign", ptr %retval, i32 0, i32 0
  %1 = load i64, ptr %coerce.dive, align 8
  ret i64 %1
}

; Function Attrs: mustprogress nounwind uwtable
define linkonce_odr hidden void @_ZNSt17basic_string_viewIcSt11char_traitsIcEEC2EPKc(ptr noundef nonnull align 8 dereferenceable(16) %this, ptr noundef nonnull %__str) unnamed_addr #5 comdat align 2 personality ptr @__gxx_personality_v0 {
entry:
  %this.addr = alloca ptr, align 8
  %__str.addr = alloca ptr, align 8
  store ptr %this, ptr %this.addr, align 8
  store ptr %__str, ptr %__str.addr, align 8
  %this1 = load ptr, ptr %this.addr, align 8
  %_M_len = getelementptr inbounds %"class.std::basic_string_view", ptr %this1, i32 0, i32 0
  %0 = load ptr, ptr %__str.addr, align 8
  %call = invoke noundef i64 @_ZNSt11char_traitsIcE6lengthEPKc(ptr noundef %0)
          to label %invoke.cont unwind label %terminate.lpad

invoke.cont:                                      ; preds = %entry
  store i64 %call, ptr %_M_len, align 8
  %_M_str = getelementptr inbounds %"class.std::basic_string_view", ptr %this1, i32 0, i32 1
  %1 = load ptr, ptr %__str.addr, align 8
  store ptr %1, ptr %_M_str, align 8
  ret void

terminate.lpad:                                   ; preds = %entry
  %2 = landingpad { ptr, i32 }
          catch ptr null
  %3 = extractvalue { ptr, i32 } %2, 0
  call void @__clang_call_terminate(ptr %3) #23
  unreachable
}

; Function Attrs: mustprogress uwtable
define linkonce_odr hidden noundef ptr @_ZN6google8protobuf5Arena23AllocateAlignedForArrayEmm(ptr noundef nonnull align 8 dereferenceable(144) %this, i64 noundef %n, i64 noundef %align) #4 comdat align 2 {
entry:
  %n.addr.i = alloca i64, align 8
  %retval = alloca ptr, align 8
  %this.addr = alloca ptr, align 8
  %n.addr = alloca i64, align 8
  %align.addr = alloca i64, align 8
  %align_as = alloca %"struct.google::protobuf::internal::ArenaAlign", align 8
  store ptr %this, ptr %this.addr, align 8
  store i64 %n, ptr %n.addr, align 8
  store i64 %align, ptr %align.addr, align 8
  %this1 = load ptr, ptr %this.addr, align 8
  %0 = load i64, ptr %align.addr, align 8
  %cmp = icmp ule i64 %0, 8
  br i1 %cmp, label %if.then, label %if.else

if.then:                                          ; preds = %entry
  %1 = load i64, ptr %n.addr, align 8
  store i64 %1, ptr %n.addr.i, align 8
  %2 = load i64, ptr %n.addr.i, align 8
  %add.i = add i64 %2, 8
  %sub.i = sub i64 %add.i, 1
  %and.i = and i64 %sub.i, -8
  %call2 = call noundef ptr @_ZN6google8protobuf5Arena16AllocateForArrayEm(ptr noundef nonnull align 8 dereferenceable(144) %this1, i64 noundef %and.i)
  store ptr %call2, ptr %retval, align 8
  br label %return

if.else:                                          ; preds = %entry
  %3 = load i64, ptr %align.addr, align 8
  %call3 = call i64 @_ZN6google8protobuf8internal12ArenaAlignAsEm(i64 noundef %3)
  %coerce.dive = getelementptr inbounds %"struct.google::protobuf::internal::ArenaAlign", ptr %align_as, i32 0, i32 0
  store i64 %call3, ptr %coerce.dive, align 8
  %4 = load i64, ptr %n.addr, align 8
  %call4 = call noundef i64 @_ZNK6google8protobuf8internal10ArenaAlign6PaddedEm(ptr noundef nonnull align 8 dereferenceable(8) %align_as, i64 noundef %4)
  %call5 = call noundef ptr @_ZN6google8protobuf5Arena16AllocateForArrayEm(ptr noundef nonnull align 8 dereferenceable(144) %this1, i64 noundef %call4)
  %call6 = call noundef ptr @_ZNK6google8protobuf8internal10ArenaAlign4CeilIvEEPT_S5_(ptr noundef nonnull align 8 dereferenceable(8) %align_as, ptr noundef %call5)
  store ptr %call6, ptr %retval, align 8
  br label %return

return:                                           ; preds = %if.else, %if.then
  %5 = load ptr, ptr %retval, align 8
  ret ptr %5
}

; Function Attrs: mustprogress uwtable
define linkonce_odr hidden noundef nonnull align 8 dereferenceable(16) ptr @_ZN4absl12lts_2023080212log_internal10LogMessagelsILi48EEERS2_RAT__Kc(ptr noundef nonnull align 8 dereferenceable(16) %this, ptr noundef nonnull align 1 dereferenceable(48) %buf) #4 comdat align 2 {
entry:
  %this.addr = alloca ptr, align 8
  %buf.addr = alloca ptr, align 8
  %agg.tmp = alloca %"class.std::basic_string_view", align 8
  store ptr %this, ptr %this.addr, align 8
  store ptr %buf, ptr %buf.addr, align 8
  %this1 = load ptr, ptr %this.addr, align 8
  %0 = load ptr, ptr %buf.addr, align 8
  %arraydecay = getelementptr inbounds [48 x i8], ptr %0, i64 0, i64 0
  call void @_ZNSt17basic_string_viewIcSt11char_traitsIcEEC2EPKc(ptr noundef nonnull align 8 dereferenceable(16) %agg.tmp, ptr noundef %arraydecay) #3
  %1 = getelementptr inbounds { i64, ptr }, ptr %agg.tmp, i32 0, i32 0
  %2 = load i64, ptr %1, align 8
  %3 = getelementptr inbounds { i64, ptr }, ptr %agg.tmp, i32 0, i32 1
  %4 = load ptr, ptr %3, align 8
  call void @_ZN4absl12lts_2023080212log_internal10LogMessage19CopyToEncodedBufferILNS2_10StringTypeE0EEEvSt17basic_string_viewIcSt11char_traitsIcEE(ptr noundef nonnull align 8 dereferenceable(16) %this1, i64 %2, ptr %4)
  ret ptr %this1
}

; Function Attrs: mustprogress nounwind uwtable
define linkonce_odr hidden noundef nonnull align 8 dereferenceable(16) ptr @_ZN4absl12lts_2023080212log_internal10LogMessage14InternalStreamEv(ptr noundef nonnull align 8 dereferenceable(16) %this) #5 comdat align 2 {
entry:
  %this.addr = alloca ptr, align 8
  store ptr %this, ptr %this.addr, align 8
  %this1 = load ptr, ptr %this.addr, align 8
  ret ptr %this1
}

; Function Attrs: mustprogress uwtable
define linkonce_odr hidden noundef ptr @_ZN4absl12lts_2023080212log_internal12Check_LEImplImmEEPNSt7__cxx1112basic_stringIcSt11char_traitsIcESaIcEEERKT_RKT0_PKc(ptr noundef nonnull align 8 dereferenceable(8) %v1, ptr noundef nonnull align 8 dereferenceable(8) %v2, ptr noundef %exprtext) #4 comdat {
entry:
  %v1.addr = alloca ptr, align 8
  %v2.addr = alloca ptr, align 8
  %exprtext.addr = alloca ptr, align 8
  store ptr %v1, ptr %v1.addr, align 8
  store ptr %v2, ptr %v2.addr, align 8
  store ptr %exprtext, ptr %exprtext.addr, align 8
  %0 = load ptr, ptr %v1.addr, align 8
  %1 = load i64, ptr %0, align 8
  %2 = load ptr, ptr %v2.addr, align 8
  %3 = load i64, ptr %2, align 8
  %cmp = icmp ule i64 %1, %3
  br i1 %cmp, label %cond.true, label %cond.false

cond.true:                                        ; preds = %entry
  br label %cond.end

cond.false:                                       ; preds = %entry
  %4 = load ptr, ptr %v1.addr, align 8
  %5 = load i64, ptr %4, align 8
  %6 = load ptr, ptr %v2.addr, align 8
  %7 = load i64, ptr %6, align 8
  %8 = load ptr, ptr %exprtext.addr, align 8
  %call = call noundef nonnull ptr @_ZN4absl12lts_2023080212log_internal17MakeCheckOpStringImmEEPNSt7__cxx1112basic_stringIcSt11char_traitsIcESaIcEEET_T0_PKc(i64 noundef %5, i64 noundef %7, ptr noundef %8)
  br label %cond.end

cond.end:                                         ; preds = %cond.false, %cond.true
  %cond = phi ptr [ null, %cond.true ], [ %call, %cond.false ]
  ret ptr %cond
}

; Function Attrs: mustprogress nounwind uwtable
define linkonce_odr hidden noundef i64 @_ZNSt14numeric_limitsImE3maxEv() #5 comdat align 2 {
entry:
  ret i64 -1
}

; Function Attrs: mustprogress nounwind uwtable
define linkonce_odr hidden noundef i64 @_ZN4absl12lts_2023080212log_internal21GetReferenceableValueEm(i64 noundef %t) #5 comdat {
entry:
  %t.addr = alloca i64, align 8
  store i64 %t, ptr %t.addr, align 8
  %0 = load i64, ptr %t.addr, align 8
  ret i64 %0
}

; Function Attrs: mustprogress uwtable
define hidden noundef ptr @_ZNK6google8protobuf14DynamicMessage3NewEPNS0_5ArenaE(ptr noundef nonnull align 8 dereferenceable(32) %this, ptr noundef %arena) unnamed_addr #4 align 2 personality ptr @__gxx_personality_v0 {
entry:
  %retval.i = alloca ptr, align 8
  %arena.addr.i = alloca ptr, align 8
  %num_elements.addr.i = alloca i64, align 8
  %absl_log_internal_check_op_result.i = alloca ptr, align 8
  %ref.tmp.i = alloca i64, align 8
  %ref.tmp1.i = alloca i64, align 8
  %ref.tmp5.i = alloca %"class.absl::lts_20230802::log_internal::LogMessageFatal", align 8
  %agg.tmp.i = alloca %"class.std::basic_string_view", align 8
  %exn.slot.i = alloca ptr, align 8
  %ehselector.slot.i = alloca i32, align 4
  %retval = alloca ptr, align 8
  %this.addr = alloca ptr, align 8
  %arena.addr = alloca ptr, align 8
  %new_base = alloca ptr, align 8
  %new_base6 = alloca ptr, align 8
  store ptr %this, ptr %this.addr, align 8
  store ptr %arena, ptr %arena.addr, align 8
  %this1 = load ptr, ptr %this.addr, align 8
  %0 = load ptr, ptr %arena.addr, align 8
  %cmp = icmp ne ptr %0, null
  br i1 %cmp, label %if.then, label %if.else

if.then:                                          ; preds = %entry
  %1 = load ptr, ptr %arena.addr, align 8
  %type_info_ = getelementptr inbounds %"class.google::protobuf::DynamicMessage", ptr %this1, i32 0, i32 1
  %2 = load ptr, ptr %type_info_, align 8
  %size = getelementptr inbounds %"struct.google::protobuf::DynamicMessageFactory::TypeInfo", ptr %2, i32 0, i32 0
  %3 = load i32, ptr %size, align 8
  %conv = sext i32 %3 to i64
  store ptr %1, ptr %arena.addr.i, align 8
  store i64 %conv, ptr %num_elements.addr.i, align 8
  %4 = load i64, ptr %num_elements.addr.i, align 8
  %call.i = call noundef i64 @_ZN4absl12lts_2023080212log_internal21GetReferenceableValueEm(i64 noundef %4)
  store i64 %call.i, ptr %ref.tmp.i, align 8
  %call2.i = call noundef i64 @_ZNSt14numeric_limitsImE3maxEv() #3
  %call3.i = call noundef i64 @_ZN4absl12lts_2023080212log_internal21GetReferenceableValueEm(i64 noundef %call2.i)
  store i64 %call3.i, ptr %ref.tmp1.i, align 8
  %call4.i = call noundef ptr @_ZN4absl12lts_2023080212log_internal12Check_LEImplImmEEPNSt7__cxx1112basic_stringIcSt11char_traitsIcESaIcEEERKT_RKT0_PKc(ptr noundef nonnull align 8 dereferenceable(8) %ref.tmp.i, ptr noundef nonnull align 8 dereferenceable(8) %ref.tmp1.i, ptr noundef @.str.4)
  store ptr %call4.i, ptr %absl_log_internal_check_op_result.i, align 8
  %5 = load ptr, ptr %absl_log_internal_check_op_result.i, align 8
  %tobool.i = icmp ne ptr %5, null
  br i1 %tobool.i, label %while.body.i, label %while.end.i

while.body.i:                                     ; preds = %if.then
  %6 = load ptr, ptr %absl_log_internal_check_op_result.i, align 8
  %call6.i = call { i64, ptr } @_ZNKSt7__cxx1112basic_stringIcSt11char_traitsIcESaIcEEcvSt17basic_string_viewIcS2_EEv(ptr noundef nonnull align 8 dereferenceable(32) %6) #3
  %7 = extractvalue { i64, ptr } %call6.i, 0
  store i64 %7, ptr %agg.tmp.i, align 8
  %8 = getelementptr inbounds { i64, ptr }, ptr %agg.tmp.i, i32 0, i32 1
  %9 = extractvalue { i64, ptr } %call6.i, 1
  store ptr %9, ptr %8, align 8
  %10 = load i64, ptr %agg.tmp.i, align 8
  %11 = getelementptr inbounds { i64, ptr }, ptr %agg.tmp.i, i32 0, i32 1
  %12 = load ptr, ptr %11, align 8
  call void @_ZN4absl12lts_2023080212log_internal15LogMessageFatalC1EPKciSt17basic_string_viewIcSt11char_traitsIcEE(ptr noundef nonnull align 8 dereferenceable(16) %ref.tmp5.i, ptr noundef @.str.5, i32 noundef 319, i64 %10, ptr %12) #24
  %call7.i = call noundef nonnull align 8 dereferenceable(16) ptr @_ZN4absl12lts_2023080212log_internal10LogMessage14InternalStreamEv(ptr noundef nonnull align 8 dereferenceable(16) %ref.tmp5.i)
  %call8.i = invoke noundef nonnull align 8 dereferenceable(16) ptr @_ZN4absl12lts_2023080212log_internal10LogMessagelsILi48EEERS2_RAT__Kc(ptr noundef nonnull align 8 dereferenceable(16) %call7.i, ptr noundef nonnull align 1 dereferenceable(48) @.str.6)
          to label %invoke.cont.i unwind label %lpad.i

invoke.cont.i:                                    ; preds = %while.body.i
  call void @_ZN4absl12lts_2023080212log_internal15LogMessageFatalD1Ev(ptr noundef nonnull align 8 dereferenceable(16) %ref.tmp5.i) #23
  unreachable

lpad.i:                                           ; preds = %while.body.i
  %13 = landingpad { ptr, i32 }
          cleanup
  %14 = extractvalue { ptr, i32 } %13, 0
  store ptr %14, ptr %exn.slot.i, align 8
  %15 = extractvalue { ptr, i32 } %13, 1
  store i32 %15, ptr %ehselector.slot.i, align 4
  call void @_ZN4absl12lts_2023080212log_internal15LogMessageFatalD1Ev(ptr noundef nonnull align 8 dereferenceable(16) %ref.tmp5.i) #23
  unreachable

while.end.i:                                      ; preds = %if.then
  %16 = load ptr, ptr %arena.addr.i, align 8
  %cmp.i = icmp eq ptr %16, null
  br i1 %cmp.i, label %if.then.i, label %if.else.i

if.then.i:                                        ; preds = %while.end.i
  %17 = load i64, ptr %num_elements.addr.i, align 8
  %call9.i = call noalias noundef nonnull ptr @_Znam(i64 noundef %17) #22
  store ptr %call9.i, ptr %retval.i, align 8
  br label %_ZN6google8protobuf5Arena11CreateArrayIcEEPT_PS1_m.exit

if.else.i:                                        ; preds = %while.end.i
  %18 = load ptr, ptr %arena.addr.i, align 8
  %19 = load i64, ptr %num_elements.addr.i, align 8
  %call11.i = call noundef ptr @_ZN6google8protobuf5Arena23AllocateAlignedForArrayEmm(ptr noundef nonnull align 8 dereferenceable(144) %18, i64 noundef %19, i64 noundef 1)
  store ptr %call11.i, ptr %retval.i, align 8
  br label %_ZN6google8protobuf5Arena11CreateArrayIcEEPT_PS1_m.exit

_ZN6google8protobuf5Arena11CreateArrayIcEEPT_PS1_m.exit: ; preds = %if.else.i, %if.then.i
  %20 = load ptr, ptr %retval.i, align 8
  store ptr %20, ptr %new_base, align 8
  %21 = load ptr, ptr %new_base, align 8
  %type_info_2 = getelementptr inbounds %"class.google::protobuf::DynamicMessage", ptr %this1, i32 0, i32 1
  %22 = load ptr, ptr %type_info_2, align 8
  %size3 = getelementptr inbounds %"struct.google::protobuf::DynamicMessageFactory::TypeInfo", ptr %22, i32 0, i32 0
  %23 = load i32, ptr %size3, align 8
  %conv4 = sext i32 %23 to i64
  call void @llvm.memset.p0.i64(ptr align 1 %21, i8 0, i64 %conv4, i1 false)
  %24 = load ptr, ptr %new_base, align 8
  %type_info_5 = getelementptr inbounds %"class.google::protobuf::DynamicMessage", ptr %this1, i32 0, i32 1
  %25 = load ptr, ptr %type_info_5, align 8
  %26 = load ptr, ptr %arena.addr, align 8
  call void @_ZN6google8protobuf14DynamicMessageC1EPKNS0_21DynamicMessageFactory8TypeInfoEPNS0_5ArenaE(ptr noundef nonnull align 8 dereferenceable(32) %24, ptr noundef %25, ptr noundef %26)
  store ptr %24, ptr %retval, align 8
  br label %return

if.else:                                          ; preds = %entry
  %type_info_7 = getelementptr inbounds %"class.google::protobuf::DynamicMessage", ptr %this1, i32 0, i32 1
  %27 = load ptr, ptr %type_info_7, align 8
  %size8 = getelementptr inbounds %"struct.google::protobuf::DynamicMessageFactory::TypeInfo", ptr %27, i32 0, i32 0
  %28 = load i32, ptr %size8, align 8
  %conv9 = sext i32 %28 to i64
  %call10 = call noalias noundef nonnull ptr @_Znwm(i64 noundef %conv9) #22
  store ptr %call10, ptr %new_base6, align 8
  %29 = load ptr, ptr %new_base6, align 8
  %type_info_11 = getelementptr inbounds %"class.google::protobuf::DynamicMessage", ptr %this1, i32 0, i32 1
  %30 = load ptr, ptr %type_info_11, align 8
  %size12 = getelementptr inbounds %"struct.google::protobuf::DynamicMessageFactory::TypeInfo", ptr %30, i32 0, i32 0
  %31 = load i32, ptr %size12, align 8
  %conv13 = sext i32 %31 to i64
  call void @llvm.memset.p0.i64(ptr align 1 %29, i8 0, i64 %conv13, i1 false)
  %32 = load ptr, ptr %new_base6, align 8
  %type_info_14 = getelementptr inbounds %"class.google::protobuf::DynamicMessage", ptr %this1, i32 0, i32 1
  %33 = load ptr, ptr %type_info_14, align 8
  call void @_ZN6google8protobuf14DynamicMessageC1EPKNS0_21DynamicMessageFactory8TypeInfoE(ptr noundef nonnull align 8 dereferenceable(32) %32, ptr noundef %33)
  store ptr %32, ptr %retval, align 8
  br label %return

return:                                           ; preds = %if.else, %_ZN6google8protobuf5Arena11CreateArrayIcEEPT_PS1_m.exit
  %34 = load ptr, ptr %retval, align 8
  ret ptr %34
}