; Function Attrs: mustprogress uwtable
define hidden noundef ptr @_ZNK6google8protobuf14DynamicMessage3NewEPNS0_5ArenaE(ptr nocapture noundef nonnull readonly align 8 dereferenceable(32) %this, ptr noundef %arena) unnamed_addr #3 align 2 personality ptr @__gxx_personality_v0 {
entry:
  %cmp.not = icmp eq ptr %arena, null
  %type_info_7 = getelementptr inbounds i8, ptr %this, i64 16
  %0 = load ptr, ptr %type_info_7, align 8
  %1 = load i32, ptr %0, align 8
  %conv9 = sext i32 %1 to i64
  br i1 %cmp.not, label %if.else, label %if.else.i

if.else.i:                                        ; preds = %entry
  %sub.i.i = add nsw i64 %conv9, 7
  %and.i.i = and i64 %sub.i.i, -8
  %call2.i = tail call noundef ptr @_ZN6google8protobuf5Arena16AllocateForArrayEm(ptr noundef nonnull align 8 dereferenceable(144) %arena, i64 noundef %and.i.i)
  %2 = load ptr, ptr %type_info_7, align 8
  %3 = load i32, ptr %2, align 8
  %conv4 = sext i32 %3 to i64
  tail call void @llvm.memset.p0.i64(ptr align 1 %call2.i, i8 0, i64 %conv4, i1 false)
  %4 = load ptr, ptr %type_info_7, align 8
  %_internal_metadata_.i.i.i = getelementptr inbounds i8, ptr %call2.i, i64 8
  %5 = ptrtoint ptr %arena to i64
  store i64 %5, ptr %_internal_metadata_.i.i.i, align 8
  br label %return

if.else:                                          ; preds = %entry
  %call10 = tail call noalias noundef nonnull ptr @_Znwm(i64 noundef %conv9) #23
  %6 = load ptr, ptr %type_info_7, align 8
  %7 = load i32, ptr %6, align 8
  %conv13 = sext i32 %7 to i64
  tail call void @llvm.memset.p0.i64(ptr nonnull align 1 %call10, i8 0, i64 %conv13, i1 false)
  %_internal_metadata_.i.i.i9 = getelementptr inbounds i8, ptr %call10, i64 8
  store i64 0, ptr %_internal_metadata_.i.i.i9, align 8
  br label %return

return:                                           ; preds = %if.else, %if.else.i
  %call10.sink14 = phi ptr [ %call10, %if.else ], [ %call2.i, %if.else.i ]
  %.sink = phi ptr [ %6, %if.else ], [ %4, %if.else.i ]
  store ptr getelementptr inbounds ({ [13 x ptr] }, ptr @_ZTVN6google8protobuf14DynamicMessageE, i64 0, i32 0, i64 2), ptr %call10.sink14, align 8
  %type_info_.i10 = getelementptr inbounds i8, ptr %call10.sink14, i64 16
  store ptr %.sink, ptr %type_info_.i10, align 8
  %cached_byte_size_.i11 = getelementptr inbounds i8, ptr %call10.sink14, i64 24
  store i32 0, ptr %cached_byte_size_.i11, align 4
  tail call void @_ZN6google8protobuf14DynamicMessage10SharedCtorEb(ptr noundef nonnull align 8 dereferenceable(32) %call10.sink14, i1 noundef zeroext true)
  ret ptr %call10.sink14
}